; ModuleID = '25/465.cpp'
source_filename = "25/465.cpp"
target datalayout = "e-m:e-p270:32:32-p271:32:32-p272:64:64-i64:64-f80:128-n8:16:32:64-S128"
target triple = "x86_64-pc-linux-gnu"

%"class.std::ios_base::Init" = type { i8 }
%"class.std::basic_istream" = type { i32 (...)**, i64, %"class.std::basic_ios" }
%"class.std::basic_ios" = type { %"class.std::ios_base", %"class.std::basic_ostream"*, i8, i8, %"class.std::basic_streambuf"*, %"class.std::ctype"*, %"class.std::num_put"*, %"class.std::num_get"* }
%"class.std::ios_base" = type { i32 (...)**, i64, i64, i32, i32, i32, %"struct.std::ios_base::_Callback_list"*, %"struct.std::ios_base::_Words", [8 x %"struct.std::ios_base::_Words"], i32, %"struct.std::ios_base::_Words"*, %"class.std::locale" }
%"struct.std::ios_base::_Callback_list" = type { %"struct.std::ios_base::_Callback_list"*, void (i32, %"class.std::ios_base"*, i32)*, i32, i32 }
%"struct.std::ios_base::_Words" = type { i8*, i64 }
%"class.std::locale" = type { %"class.std::locale::_Impl"* }
%"class.std::locale::_Impl" = type { i32, %"class.std::locale::facet"**, i64, %"class.std::locale::facet"**, i8** }
%"class.std::locale::facet" = type <{ i32 (...)**, i32, [4 x i8] }>
%"class.std::basic_ostream" = type { i32 (...)**, %"class.std::basic_ios" }
%"class.std::basic_streambuf" = type { i32 (...)**, i8*, i8*, i8*, i8*, i8*, i8*, %"class.std::locale" }
%"class.std::ctype" = type <{ %"class.std::locale::facet.base", [4 x i8], %struct.__locale_struct*, i8, [7 x i8], i32*, i32*, i16*, i8, [256 x i8], [256 x i8], i8, [6 x i8] }>
%"class.std::locale::facet.base" = type <{ i32 (...)**, i32 }>
%struct.__locale_struct = type { [13 x %struct.__locale_data*], i16*, i32*, i32*, [13 x i8*] }
%struct.__locale_data = type opaque
%"class.std::num_put" = type { %"class.std::locale::facet.base", [4 x i8] }
%"class.std::num_get" = type { %"class.std::locale::facet.base", [4 x i8] }

@_ZStL8__ioinit = internal global %"class.std::ios_base::Init" zeroinitializer, align 1
@__dso_handle = external hidden global i8
@_ZSt3cin = external dso_local global %"class.std::basic_istream", align 8
@_ZSt4cout = external dso_local global %"class.std::basic_ostream", align 8
@llvm.global_ctors = appending global [1 x { i32, void ()*, i8* }] [{ i32, void ()*, i8* } { i32 65535, void ()* @_GLOBAL__sub_I_465.cpp, i8* null }]

; Function Attrs: noinline uwtable
define internal void @__cxx_global_var_init() #0 section ".text.startup" {
  call void @_ZNSt8ios_base4InitC1Ev(%"class.std::ios_base::Init"* @_ZStL8__ioinit)
  %1 = call i32 @__cxa_atexit(void (i8*)* bitcast (void (%"class.std::ios_base::Init"*)* @_ZNSt8ios_base4InitD1Ev to void (i8*)*), i8* getelementptr inbounds (%"class.std::ios_base::Init", %"class.std::ios_base::Init"* @_ZStL8__ioinit, i32 0, i32 0), i8* @__dso_handle) #3
  ret void
}

declare dso_local void @_ZNSt8ios_base4InitC1Ev(%"class.std::ios_base::Init"*) unnamed_addr #1

; Function Attrs: nounwind
declare dso_local void @_ZNSt8ios_base4InitD1Ev(%"class.std::ios_base::Init"*) unnamed_addr #2

; Function Attrs: nounwind
declare dso_local i32 @__cxa_atexit(void (i8*)*, i8*, i8*) #3

; Function Attrs: noinline norecurse uwtable
define dso_local i32 @main() #4 {
  %1 = alloca i32, align 4
  %2 = alloca [102 x i32], align 16
  %3 = alloca i32, align 4
  %4 = alloca [102 x i32], align 16
  %5 = alloca i32, align 4
  store i32 0, i32* %1, align 4
  %6 = getelementptr inbounds [102 x i32], [102 x i32]* %2, i64 0, i64 0
  %7 = bitcast i32* %6 to i8*
  call void @llvm.memset.p0i8.i64(i8* align 16 %7, i8 0, i64 408, i1 false)
  %8 = getelementptr inbounds [102 x i32], [102 x i32]* %4, i64 0, i64 0
  %9 = bitcast i32* %8 to i8*
  call void @llvm.memset.p0i8.i64(i8* align 16 %9, i8 0, i64 408, i1 false)
  %10 = getelementptr inbounds [102 x i32], [102 x i32]* %2, i64 0, i64 0
  store i32 1, i32* %10, align 16
  %11 = call dereferenceable(280) %"class.std::basic_istream"* @_ZNSirsERi(%"class.std::basic_istream"* @_ZSt3cin, i32* dereferenceable(4) %5)
  br label %12

12:                                               ; preds = %70, %0
  %13 = load i32, i32* %5, align 4
  %14 = add nsw i32 %13, -1
  store i32 %14, i32* %5, align 4
  %15 = icmp sgt i32 %13, 0
  br i1 %15, label %16, label %73

16:                                               ; preds = %12
  store i32 0, i32* %3, align 4
  br label %17

17:                                               ; preds = %52, %16
  %18 = load i32, i32* %3, align 4
  %19 = icmp slt i32 %18, 101
  br i1 %19, label %20, label %55

20:                                               ; preds = %17
  %21 = load i32, i32* %3, align 4
  %22 = sext i32 %21 to i64
  %23 = getelementptr inbounds [102 x i32], [102 x i32]* %2, i64 0, i64 %22
  %24 = load i32, i32* %23, align 4
  %25 = mul nsw i32 %24, 2
  %26 = load i32, i32* %3, align 4
  %27 = sext i32 %26 to i64
  %28 = getelementptr inbounds [102 x i32], [102 x i32]* %4, i64 0, i64 %27
  %29 = load i32, i32* %28, align 4
  %30 = add nsw i32 %29, %25
  store i32 %30, i32* %28, align 4
  %31 = load i32, i32* %3, align 4
  %32 = sext i32 %31 to i64
  %33 = getelementptr inbounds [102 x i32], [102 x i32]* %4, i64 0, i64 %32
  %34 = load i32, i32* %33, align 4
  %35 = icmp sge i32 %34, 10
  br i1 %35, label %36, label %51

36:                                               ; preds = %20
  %37 = load i32, i32* %3, align 4
  %38 = add nsw i32 %37, 1
  %39 = sext i32 %38 to i64
  %40 = getelementptr inbounds [102 x i32], [102 x i32]* %4, i64 0, i64 %39
  %41 = load i32, i32* %40, align 4
  %42 = add nsw i32 %41, 1
  store i32 %42, i32* %40, align 4
  %43 = load i32, i32* %3, align 4
  %44 = sext i32 %43 to i64
  %45 = getelementptr inbounds [102 x i32], [102 x i32]* %4, i64 0, i64 %44
  %46 = load i32, i32* %45, align 4
  %47 = srem i32 %46, 10
  %48 = load i32, i32* %3, align 4
  %49 = sext i32 %48 to i64
  %50 = getelementptr inbounds [102 x i32], [102 x i32]* %4, i64 0, i64 %49
  store i32 %47, i32* %50, align 4
  br label %51

51:                                               ; preds = %36, %20
  br label %52

52:                                               ; preds = %51
  %53 = load i32, i32* %3, align 4
  %54 = add nsw i32 %53, 1
  store i32 %54, i32* %3, align 4
  br label %17

55:                                               ; preds = %17
  store i32 0, i32* %3, align 4
  br label %56

56:                                               ; preds = %67, %55
  %57 = load i32, i32* %3, align 4
  %58 = icmp slt i32 %57, 101
  br i1 %58, label %59, label %70

59:                                               ; preds = %56
  %60 = load i32, i32* %3, align 4
  %61 = sext i32 %60 to i64
  %62 = getelementptr inbounds [102 x i32], [102 x i32]* %4, i64 0, i64 %61
  %63 = load i32, i32* %62, align 4
  %64 = load i32, i32* %3, align 4
  %65 = sext i32 %64 to i64
  %66 = getelementptr inbounds [102 x i32], [102 x i32]* %2, i64 0, i64 %65
  store i32 %63, i32* %66, align 4
  br label %67

67:                                               ; preds = %59
  %68 = load i32, i32* %3, align 4
  %69 = add nsw i32 %68, 1
  store i32 %69, i32* %3, align 4
  br label %56

70:                                               ; preds = %56
  %71 = getelementptr inbounds [102 x i32], [102 x i32]* %4, i64 0, i64 0
  %72 = bitcast i32* %71 to i8*
  call void @llvm.memset.p0i8.i64(i8* align 16 %72, i8 0, i64 408, i1 false)
  br label %12

73:                                               ; preds = %12
  store i32 101, i32* %3, align 4
  br label %74

74:                                               ; preds = %80, %73
  %75 = load i32, i32* %3, align 4
  %76 = sext i32 %75 to i64
  %77 = getelementptr inbounds [102 x i32], [102 x i32]* %2, i64 0, i64 %76
  %78 = load i32, i32* %77, align 4
  %79 = icmp eq i32 %78, 0
  br i1 %79, label %80, label %83

80:                                               ; preds = %74
  %81 = load i32, i32* %3, align 4
  %82 = add nsw i32 %81, -1
  store i32 %82, i32* %3, align 4
  br label %74

83:                                               ; preds = %74
  br label %84

84:                                               ; preds = %93, %83
  %85 = load i32, i32* %3, align 4
  %86 = icmp sge i32 %85, 0
  br i1 %86, label %87, label %96

87:                                               ; preds = %84
  %88 = load i32, i32* %3, align 4
  %89 = sext i32 %88 to i64
  %90 = getelementptr inbounds [102 x i32], [102 x i32]* %2, i64 0, i64 %89
  %91 = load i32, i32* %90, align 4
  %92 = call dereferenceable(272) %"class.std::basic_ostream"* @_ZNSolsEi(%"class.std::basic_ostream"* @_ZSt4cout, i32 %91)
  br label %93

93:                                               ; preds = %87
  %94 = load i32, i32* %3, align 4
  %95 = add nsw i32 %94, -1
  store i32 %95, i32* %3, align 4
  br label %84

96:                                               ; preds = %84
  %97 = call dereferenceable(272) %"class.std::basic_ostream"* @_ZNSolsEPFRSoS_E(%"class.std::basic_ostream"* @_ZSt4cout, %"class.std::basic_ostream"* (%"class.std::basic_ostream"*)* @_ZSt4endlIcSt11char_traitsIcEERSt13basic_ostreamIT_T0_ES6_)
  ret i32 0
}

; Function Attrs: argmemonly nounwind willreturn
declare void @llvm.memset.p0i8.i64(i8* nocapture writeonly, i8, i64, i1 immarg) #5

declare dso_local dereferenceable(280) %"class.std::basic_istream"* @_ZNSirsERi(%"class.std::basic_istream"*, i32* dereferenceable(4)) #1

declare dso_local dereferenceable(272) %"class.std::basic_ostream"* @_ZNSolsEi(%"class.std::basic_ostream"*, i32) #1

declare dso_local dereferenceable(272) %"class.std::basic_ostream"* @_ZNSolsEPFRSoS_E(%"class.std::basic_ostream"*, %"class.std::basic_ostream"* (%"class.std::basic_ostream"*)*) #1

declare dso_local dereferenceable(272) %"class.std::basic_ostream"* @_ZSt4endlIcSt11char_traitsIcEERSt13basic_ostreamIT_T0_ES6_(%"class.std::basic_ostream"* dereferenceable(272)) #1

; Function Attrs: noinline uwtable
define internal void @_GLOBAL__sub_I_465.cpp() #0 section ".text.startup" {
  call void @__cxx_global_var_init()
  ret void
}


!llvm.module.flags = !{!0}
!llvm.ident = !{!1}

!0 = !{i32 1, !"wchar_size", i32 4}
!1 = !{!"clang version 10.0.0-4ubuntu1 "}
